target datalayout = "e-m:e-p270:32:32-p271:32:32-p272:64:64-i64:64-i128:128-f80:128-n8:16:32:64-S128"
target triple = "x86_64-pc-linux-gnu"

%struct.in6_addr = type { %union.anon.6 }
%union.anon.6 = type { [4 x i32] }
%struct.uv_udp_s = type { ptr, ptr, i32, ptr, %struct.uv__queue, %union.anon, ptr, i32, i64, i64, ptr, ptr, %struct.uv__io_s, %struct.uv__queue, %struct.uv__queue }
%union.anon = type { [4 x ptr] }
%struct.uv__io_s = type { ptr, %struct.uv__queue, %struct.uv__queue, i32, i32, i32 }
%struct.uv__queue = type { ptr, ptr }
%struct.sockaddr_storage = type { i16, [118 x i8], i64 }
%struct.sockaddr_in6 = type { i16, i16, i32, %struct.in6_addr, i32 }
%struct.sockaddr_in = type { i16, i16, %struct.in_addr, [8 x i8] }
%struct.in_addr = type { i32 }

; Function Attrs: inlinehint nounwind uwtable
define internal i32 @__bswap_32(i32 noundef %0) #3 {
  %2 = alloca i32, align 4
  store i32 %0, ptr %2, align 4
  %3 = load i32, ptr %2, align 4
  %4 = and i32 %3, -16777216
  %5 = lshr i32 %4, 24
  %6 = load i32, ptr %2, align 4
  %7 = and i32 %6, 16711680
  %8 = lshr i32 %7, 8
  %9 = or i32 %5, %8
  %10 = load i32, ptr %2, align 4
  %11 = and i32 %10, 65280
  %12 = shl i32 %11, 8
  %13 = or i32 %9, %12
  %14 = load i32, ptr %2, align 4
  %15 = and i32 %14, 255
  %16 = shl i32 %15, 24
  %17 = or i32 %13, %16
  ret i32 %17
}

; Function Attrs: nounwind uwtable
define dso_local i32 @uv_udp_set_multicast_interface(ptr noundef %0, ptr noundef %1) #0 {
  %3 = alloca i32, align 4
  %4 = alloca ptr, align 8
  %5 = alloca ptr, align 8
  %6 = alloca %struct.sockaddr_storage, align 8
  %7 = alloca ptr, align 8
  %8 = alloca ptr, align 8
  %9 = alloca i32, align 4
  store ptr %0, ptr %4, align 8
  store ptr %1, ptr %5, align 8
  call void @llvm.lifetime.start.p0(i64 128, ptr %6) #10
  call void @llvm.lifetime.start.p0(i64 8, ptr %7) #10
  call void @llvm.lifetime.start.p0(i64 8, ptr %8) #10
  store ptr %6, ptr %7, align 8
  store ptr %6, ptr %8, align 8
  %10 = load ptr, ptr %5, align 8
  %11 = icmp ne ptr %10, null
  br i1 %11, label %29, label %12

12:                                               ; preds = %2
  call void @llvm.memset.p0.i64(ptr align 8 %6, i8 0, i64 128, i1 false)
  %13 = load ptr, ptr %4, align 8
  %14 = getelementptr inbounds nuw %struct.uv_udp_s, ptr %13, i32 0, i32 7
  %15 = load i32, ptr %14, align 8
  %16 = and i32 %15, 4194304
  %17 = icmp ne i32 %16, 0
  br i1 %17, label %18, label %22

18:                                               ; preds = %12
  %19 = getelementptr inbounds nuw %struct.sockaddr_storage, ptr %6, i32 0, i32 0
  store i16 10, ptr %19, align 8
  %20 = load ptr, ptr %8, align 8
  %21 = getelementptr inbounds nuw %struct.sockaddr_in6, ptr %20, i32 0, i32 4
  store i32 0, ptr %21, align 4
  br label %28

22:                                               ; preds = %12
  %23 = getelementptr inbounds nuw %struct.sockaddr_storage, ptr %6, i32 0, i32 0
  store i16 2, ptr %23, align 8
  %24 = call i32 @__bswap_32(i32 noundef 0)
  %25 = load ptr, ptr %7, align 8
  %26 = getelementptr inbounds nuw %struct.sockaddr_in, ptr %25, i32 0, i32 2
  %27 = getelementptr inbounds nuw %struct.in_addr, ptr %26, i32 0, i32 0
  store i32 %24, ptr %27, align 4
  br label %28

28:                                               ; preds = %22, %18
  br label %44

29:                                               ; preds = %2
  %30 = load ptr, ptr %5, align 8
  %31 = load ptr, ptr %7, align 8
  %32 = call i32 @uv_ip4_addr(ptr noundef %30, i32 noundef 0, ptr noundef %31)
  %33 = icmp eq i32 %32, 0
  br i1 %33, label %34, label %35

34:                                               ; preds = %29
  br label %43

35:                                               ; preds = %29
  %36 = load ptr, ptr %5, align 8
  %37 = load ptr, ptr %8, align 8
  %38 = call i32 @uv_ip6_addr(ptr noundef %36, i32 noundef 0, ptr noundef %37)
  %39 = icmp eq i32 %38, 0
  br i1 %39, label %40, label %41

40:                                               ; preds = %35
  br label %42

41:                                               ; preds = %35
  store i32 -22, ptr %3, align 4
  store i32 1, ptr %9, align 4
  br label %85

42:                                               ; preds = %40
  br label %43

43:                                               ; preds = %42, %34
  br label %44

44:                                               ; preds = %43, %28
  %45 = getelementptr inbounds nuw %struct.sockaddr_storage, ptr %6, i32 0, i32 0
  %46 = load i16, ptr %45, align 8
  %47 = zext i16 %46 to i32
  %48 = icmp eq i32 %47, 2
  br i1 %48, label %49, label %63

49:                                               ; preds = %44
  %50 = load ptr, ptr %4, align 8
  %51 = getelementptr inbounds nuw %struct.uv_udp_s, ptr %50, i32 0, i32 12
  %52 = getelementptr inbounds nuw %struct.uv__io_s, ptr %51, i32 0, i32 5
  %53 = load i32, ptr %52, align 8
  %54 = load ptr, ptr %7, align 8
  %55 = getelementptr inbounds nuw %struct.sockaddr_in, ptr %54, i32 0, i32 2
  %56 = call i32 @setsockopt(i32 noundef %53, i32 noundef 0, i32 noundef 32, ptr noundef %55, i32 noundef 4) #10
  %57 = icmp eq i32 %56, -1
  br i1 %57, label %58, label %62

58:                                               ; preds = %49
  %59 = call ptr @__errno_location() #11
  %60 = load i32, ptr %59, align 4
  %61 = sub nsw i32 0, %60
  store i32 %61, ptr %3, align 4
  store i32 1, ptr %9, align 4
  br label %85

62:                                               ; preds = %49
  br label %84

63:                                               ; preds = %44
  %64 = getelementptr inbounds nuw %struct.sockaddr_storage, ptr %6, i32 0, i32 0
  %65 = load i16, ptr %64, align 8
  %66 = zext i16 %65 to i32
  %67 = icmp eq i32 %66, 10
  br i1 %67, label %68, label %82

68:                                               ; preds = %63
  %69 = load ptr, ptr %4, align 8
  %70 = getelementptr inbounds nuw %struct.uv_udp_s, ptr %69, i32 0, i32 12
  %71 = getelementptr inbounds nuw %struct.uv__io_s, ptr %70, i32 0, i32 5
  %72 = load i32, ptr %71, align 8
  %73 = load ptr, ptr %8, align 8
  %74 = getelementptr inbounds nuw %struct.sockaddr_in6, ptr %73, i32 0, i32 4
  %75 = call i32 @setsockopt(i32 noundef %72, i32 noundef 41, i32 noundef 17, ptr noundef %74, i32 noundef 4) #10
  %76 = icmp eq i32 %75, -1
  br i1 %76, label %77, label %81

77:                                               ; preds = %68
  %78 = call ptr @__errno_location() #11
  %79 = load i32, ptr %78, align 4
  %80 = sub nsw i32 0, %79
  store i32 %80, ptr %3, align 4
  store i32 1, ptr %9, align 4
  br label %85

81:                                               ; preds = %68
  br label %83

82:                                               ; preds = %63
  call void @abort() #12
  unreachable

83:                                               ; preds = %81
  br label %84

84:                                               ; preds = %83, %62
  store i32 0, ptr %3, align 4
  store i32 1, ptr %9, align 4
  br label %85

85:                                               ; preds = %84, %77, %58, %41
  call void @llvm.lifetime.end.p0(i64 8, ptr %8) #10
  call void @llvm.lifetime.end.p0(i64 8, ptr %7) #10
  call void @llvm.lifetime.end.p0(i64 128, ptr %6) #10
  %86 = load i32, ptr %3, align 4
  ret i32 %86
}