; Function Attrs: nounwind uwtable
define dso_local range(i32 -2147483647, -2147483648) i32 @uv_udp_set_multicast_interface(ptr noundef readonly captures(none) %0, ptr noundef %1) local_unnamed_addr #0 {
  %3 = alloca %struct.sockaddr_storage, align 8
  call void @llvm.lifetime.start.p0(i64 128, ptr nonnull %3) #10
  %.not = icmp eq ptr %1, null
  br i1 %.not, label %4, label %8

4:                                                ; preds = %2
  call void @llvm.memset.p0.i64(ptr noundef nonnull align 8 dereferenceable(128) %3, i8 0, i64 128, i1 false)
  %5 = getelementptr inbounds nuw i8, ptr %0, i64 88
  %6 = load i32, ptr %5, align 8
  %7 = and i32 %6, 4194304
  %.not14 = icmp eq i32 %7, 0
  br i1 %.not14, label %.thread, label %.thread15

.thread15:                                        ; preds = %4
  store i16 10, ptr %3, align 8
  br label %21

.thread:                                          ; preds = %4
  store i16 2, ptr %3, align 8
  br label %15

8:                                                ; preds = %2
  %9 = call i32 @uv_ip4_addr(ptr noundef nonnull %1, i32 noundef 0, ptr noundef nonnull %3) #10
  %10 = icmp eq i32 %9, 0
  br i1 %10, label %14, label %11

11:                                               ; preds = %8
  %12 = call i32 @uv_ip6_addr(ptr noundef nonnull %1, i32 noundef 0, ptr noundef nonnull %3) #10
  %13 = icmp eq i32 %12, 0
  br i1 %13, label %14, label %31

14:                                               ; preds = %8, %11
  %.pr = load i16, ptr %3, align 8
  switch i16 %.pr, label %27 [
    i16 2, label %15
    i16 10, label %21
  ]

15:                                               ; preds = %.thread, %14
  %16 = getelementptr inbounds nuw i8, ptr %0, i64 176
  %17 = load i32, ptr %16, align 8
  %18 = getelementptr inbounds nuw i8, ptr %3, i64 4
  %19 = call i32 @setsockopt(i32 noundef %17, i32 noundef 0, i32 noundef 32, ptr noundef nonnull %18, i32 noundef 4) #10
  %20 = icmp eq i32 %19, -1
  br i1 %20, label %.sink.split, label %31

21:                                               ; preds = %.thread15, %14
  %22 = getelementptr inbounds nuw i8, ptr %0, i64 176
  %23 = load i32, ptr %22, align 8
  %24 = getelementptr inbounds nuw i8, ptr %3, i64 24
  %25 = call i32 @setsockopt(i32 noundef %23, i32 noundef 41, i32 noundef 17, ptr noundef nonnull %24, i32 noundef 4) #10
  %26 = icmp eq i32 %25, -1
  br i1 %26, label %.sink.split, label %31

27:                                               ; preds = %14
  call void @abort() #12
  unreachable

.sink.split:                                      ; preds = %21, %15
  %28 = tail call ptr @__errno_location() #11
  %29 = load i32, ptr %28, align 4
  %30 = sub nsw i32 0, %29
  br label %31

31:                                               ; preds = %.sink.split, %15, %21, %11
  %.0 = phi i32 [ -22, %11 ], [ 0, %21 ], [ 0, %15 ], [ %30, %.sink.split ]
  call void @llvm.lifetime.end.p0(i64 128, ptr nonnull %3) #10
  ret i32 %.0
}